; Function Attrs: mustprogress nounwind uwtable
define dso_local noundef zeroext i1 @_ZN4llvm7TGLexer20prepSkipDirectiveEndEv(ptr noundef nonnull align 8 dereferenceable(192) %0) local_unnamed_addr #0 align 2 {
  %2 = alloca %"class.llvm::Twine", align 8
  %3 = getelementptr inbounds nuw i8, ptr %0, i64 8
  %4 = getelementptr inbounds nuw i8, ptr %0, i64 16
  %5 = getelementptr inbounds i8, ptr %0, i64 24
  %6 = load ptr, ptr %3, align 8
  %7 = load ptr, ptr %4, align 8
  %8 = load i64, ptr %5, align 8
  %9 = getelementptr inbounds i8, ptr %7, i64 %8
  %.not6 = icmp eq ptr %6, %9
  br i1 %.not6, label %.loopexit, label %.lr.ph

.lr.ph:                                           ; preds = %1
  %10 = getelementptr inbounds nuw i8, ptr %0, i64 32
  br label %11

11:                                               ; preds = %.lr.ph, %.backedge
  %12 = phi i64 [ %8, %.lr.ph ], [ %34, %.backedge ]
  %13 = phi ptr [ %7, %.lr.ph ], [ %35, %.backedge ]
  %14 = phi ptr [ %6, %.lr.ph ], [ %36, %.backedge ]
  %15 = load i8, ptr %14, align 1
  switch i8 %15, label %38 [
    i8 32, label %39
    i8 9, label %39
    i8 10, label %.loopexit
    i8 13, label %.loopexit
    i8 47, label %16
  ]

16:                                               ; preds = %11
  %17 = getelementptr inbounds i8, ptr %14, i64 1
  %18 = load i8, ptr %17, align 1
  switch i8 %18, label %31 [
    i8 47, label %19
    i8 42, label %29
  ]

19:                                               ; preds = %16
  %20 = getelementptr inbounds i8, ptr %14, i64 2
  store ptr %20, ptr %3, align 8
  %21 = ptrtoint ptr %20 to i64
  %22 = ptrtoint ptr %13 to i64
  %23 = sub i64 %21, %22
  %24 = tail call noundef i64 @_ZNK4llvm9StringRef13find_first_ofES0_m(ptr noundef nonnull align 8 dereferenceable(16) %4, ptr nonnull @.str.41, i64 2, i64 noundef %23) #19
  %25 = icmp eq i64 %24, -1
  %26 = load ptr, ptr %4, align 8
  %27 = load i64, ptr %5, align 8
  %.v.i = select i1 %25, i64 %27, i64 %24
  %28 = getelementptr inbounds i8, ptr %26, i64 %.v.i
  store ptr %28, ptr %3, align 8
  br label %.backedge

29:                                               ; preds = %16
  store ptr %14, ptr %10, align 8
  store ptr %17, ptr %3, align 8
  %30 = tail call noundef zeroext i1 @_ZN4llvm7TGLexer12SkipCCommentEv(ptr noundef nonnull align 8 dereferenceable(192) %0)
  br i1 %30, label %.loopexit, label %..backedge_crit_edge

..backedge_crit_edge:                             ; preds = %29
  %.pre = load ptr, ptr %3, align 8
  %.pre15 = load ptr, ptr %4, align 8
  %.pre16 = load i64, ptr %5, align 8
  br label %.backedge

31:                                               ; preds = %16
  store ptr %14, ptr %10, align 8
  %32 = getelementptr inbounds nuw i8, ptr %2, i64 32
  %33 = getelementptr inbounds nuw i8, ptr %2, i64 33
  store i8 1, ptr %33, align 1
  store ptr @.str.3, ptr %2, align 8
  store i8 3, ptr %32, align 8
  call void @_ZN4llvm10PrintErrorEPKcRKNS_5TwineE(ptr noundef nonnull %14, ptr noundef nonnull align 8 dereferenceable(34) %2) #19
  br label %.loopexit

.backedge:                                        ; preds = %..backedge_crit_edge, %19, %39
  %34 = phi i64 [ %.pre16, %..backedge_crit_edge ], [ %27, %19 ], [ %12, %39 ]
  %35 = phi ptr [ %.pre15, %..backedge_crit_edge ], [ %26, %19 ], [ %13, %39 ]
  %36 = phi ptr [ %.pre, %..backedge_crit_edge ], [ %28, %19 ], [ %40, %39 ]
  %37 = getelementptr inbounds i8, ptr %35, i64 %34
  %.not = icmp eq ptr %36, %37
  br i1 %.not, label %.loopexit, label %11, !llvm.loop !58

38:                                               ; preds = %11
  store ptr %14, ptr %10, align 8
  br label %.loopexit

39:                                               ; preds = %11, %11
  %40 = getelementptr inbounds i8, ptr %14, i64 1
  store ptr %40, ptr %3, align 8
  br label %.backedge

.loopexit:                                        ; preds = %11, %11, %29, %.backedge, %1, %38, %31
  %.0 = phi i1 [ false, %38 ], [ false, %31 ], [ true, %1 ], [ true, %11 ], [ true, %11 ], [ false, %29 ], [ true, %.backedge ]
  ret i1 %.0
}